target datalayout = "e-m:e-p270:32:32-p271:32:32-p272:64:64-i64:64-i128:128-f80:128-n8:16:32:64-S128"
target triple = "x86_64-pc-linux-gnu"

%class.cmParseDelphiCoverage = type { ptr, ptr }
%"class.std::__cxx11::basic_string" = type { %"struct.std::__cxx11::basic_string<char>::_Alloc_hider", i64, %union.anon }
%"struct.std::__cxx11::basic_string<char>::_Alloc_hider" = type { ptr }
%union.anon = type { i64, [8 x i8] }
%"class.std::__cxx11::basic_ostringstream" = type { %"class.std::basic_ostream.base", %"class.std::__cxx11::basic_stringbuf", %"class.std::basic_ios" }
%"class.std::basic_ostream.base" = type { ptr }
%"class.std::__cxx11::basic_stringbuf" = type { %"class.std::basic_streambuf", i32, %"class.std::__cxx11::basic_string" }
%"class.std::basic_streambuf" = type { ptr, ptr, ptr, ptr, ptr, ptr, ptr, %"class.std::locale" }
%"class.std::locale" = type { ptr }
%"class.std::basic_ios" = type { %"class.std::ios_base", ptr, i8, i8, ptr, ptr, ptr, ptr }
%"class.std::ios_base" = type { ptr, i64, i64, i32, i32, i32, ptr, %"struct.std::ios_base::_Words", [8 x %"struct.std::ios_base::_Words"], i32, ptr, %"class.std::locale" }
%"struct.std::ios_base::_Words" = type { ptr, i64 }
%class.cmCTestCoverageHandlerContainer = type <{ i32, [4 x i8], %"class.std::__cxx11::basic_string", %"class.std::__cxx11::basic_string", %"class.std::map", ptr, i8, [7 x i8] }>
%"class.std::map" = type { %"class.std::_Rb_tree" }
%"class.std::_Rb_tree" = type { %"struct.std::_Rb_tree<std::__cxx11::basic_string<char>, std::pair<const std::__cxx11::basic_string<char>, std::vector<int>>, std::_Select1st<std::pair<const std::__cxx11::basic_string<char>, std::vector<int>>>, std::less<std::__cxx11::basic_string<char>>>::_Rb_tree_impl" }
%"struct.std::_Rb_tree<std::__cxx11::basic_string<char>, std::pair<const std::__cxx11::basic_string<char>, std::vector<int>>, std::_Select1st<std::pair<const std::__cxx11::basic_string<char>, std::vector<int>>>, std::less<std::__cxx11::basic_string<char>>>::_Rb_tree_impl" = type { %"struct.std::_Rb_tree_key_compare", %"struct.std::_Rb_tree_header" }
%"struct.std::_Rb_tree_key_compare" = type { %"struct.std::less" }
%"struct.std::less" = type { i8 }
%"struct.std::_Rb_tree_header" = type { %"struct.std::_Rb_tree_node_base", i64 }
%"struct.std::_Rb_tree_node_base" = type { i32, ptr, ptr, ptr }
%"struct.std::_Vector_base" = type { %"struct.std::_Vector_base<std::__cxx11::basic_string<char>, std::allocator<std::__cxx11::basic_string<char>>>::_Vector_impl" }
%"struct.std::_Vector_base<std::__cxx11::basic_string<char>, std::allocator<std::__cxx11::basic_string<char>>>::_Vector_impl" = type { %"struct.std::_Vector_base<std::__cxx11::basic_string<char>, std::allocator<std::__cxx11::basic_string<char>>>::_Vector_impl_data" }
%"struct.std::_Vector_base<std::__cxx11::basic_string<char>, std::allocator<std::__cxx11::basic_string<char>>>::_Vector_impl_data" = type { ptr, ptr, ptr }
%"class.cmParseDelphiCoverage::HTMLParser" = type { ptr, ptr, ptr }

@.str = private unnamed_addr constant [19 x i8] c"Reading HTML File \00", align 1
@.str.1 = private unnamed_addr constant [128 x i8] c"generated/home/dtcxzyw/WorkSpace/Projects/compilers/llvm-opt-benchmark/bench/cmake/CMake/Source/CTest/cmParseDelphiCoverage.cxx\00", align 1
@.str.2 = private unnamed_addr constant [6 x i8] c".html\00", align 1
@_ZTVN21cmParseDelphiCoverage10HTMLParserE = linkonce_odr dso_local unnamed_addr constant { [4 x ptr] } { [4 x ptr] [ptr null, ptr @_ZTIN21cmParseDelphiCoverage10HTMLParserE, ptr @_ZN21cmParseDelphiCoverage10HTMLParserD2Ev, ptr @_ZN21cmParseDelphiCoverage10HTMLParserD0Ev] }, comdat, align 8

; Function Attrs: mustprogress nounwind uwtable
define linkonce_odr dso_local void @_ZN21cmParseDelphiCoverage10HTMLParserD2Ev(ptr noundef nonnull align 8 dereferenceable(24) %0) unnamed_addr #4 comdat align 2 {
  %2 = alloca ptr, align 8
  store ptr %0, ptr %2, align 8
  ret void
}

; Function Attrs: mustprogress nounwind uwtable
define linkonce_odr dso_local void @_ZN21cmParseDelphiCoverage10HTMLParserC2EP7cmCTestR31cmCTestCoverageHandlerContainer(ptr noundef nonnull align 8 dereferenceable(24) %0, ptr noundef %1, ptr noundef nonnull align 8 dereferenceable(129) %2) unnamed_addr #4 comdat align 2 {
  %4 = alloca ptr, align 8
  %5 = alloca ptr, align 8
  %6 = alloca ptr, align 8
  store ptr %0, ptr %4, align 8
  store ptr %1, ptr %5, align 8
  store ptr %2, ptr %6, align 8
  %7 = load ptr, ptr %4, align 8
  store ptr getelementptr inbounds ({ [4 x ptr] }, ptr @_ZTVN21cmParseDelphiCoverage10HTMLParserE, i32 0, i32 0, i32 2), ptr %7, align 8
  %8 = getelementptr inbounds %"class.cmParseDelphiCoverage::HTMLParser", ptr %7, i32 0, i32 1
  %9 = load ptr, ptr %5, align 8
  store ptr %9, ptr %8, align 8
  %10 = getelementptr inbounds %"class.cmParseDelphiCoverage::HTMLParser", ptr %7, i32 0, i32 2
  %11 = load ptr, ptr %6, align 8
  store ptr %11, ptr %10, align 8
  ret void
}

; Function Attrs: mustprogress uwtable
define dso_local noundef zeroext i1 @_ZN21cmParseDelphiCoverage14ReadDelphiHTMLEPKc(ptr noundef nonnull align 8 dereferenceable(16) %0, ptr noundef %1) #5 align 2 personality ptr @__gxx_personality_v0 {
  %3 = alloca ptr, align 8
  %4 = alloca ptr, align 8
  %5 = alloca %"class.cmParseDelphiCoverage::HTMLParser", align 8
  %6 = alloca ptr, align 8
  %7 = alloca i32, align 4
  store ptr %0, ptr %3, align 8
  store ptr %1, ptr %4, align 8
  %8 = load ptr, ptr %3, align 8
  %9 = getelementptr inbounds %class.cmParseDelphiCoverage, ptr %8, i32 0, i32 1
  %10 = load ptr, ptr %9, align 8
  %11 = getelementptr inbounds %class.cmParseDelphiCoverage, ptr %8, i32 0, i32 0
  %12 = load ptr, ptr %11, align 8
  call void @_ZN21cmParseDelphiCoverage10HTMLParserC2EP7cmCTestR31cmCTestCoverageHandlerContainer(ptr noundef nonnull align 8 dereferenceable(24) %5, ptr noundef %10, ptr noundef nonnull align 8 dereferenceable(129) %12)
  %13 = load ptr, ptr %4, align 8
  %14 = invoke noundef zeroext i1 @_ZN21cmParseDelphiCoverage10HTMLParser9ParseFileEPKc(ptr noundef nonnull align 8 dereferenceable(24) %5, ptr noundef %13)
          to label %15 unwind label %16

15:                                               ; preds = %2
  call void @_ZN21cmParseDelphiCoverage10HTMLParserD2Ev(ptr noundef nonnull align 8 dereferenceable(24) %5) #3
  ret i1 true

16:                                               ; preds = %2
  %17 = landingpad { ptr, i32 }
          cleanup
  %18 = extractvalue { ptr, i32 } %17, 0
  store ptr %18, ptr %6, align 8
  %19 = extractvalue { ptr, i32 } %17, 1
  store i32 %19, ptr %7, align 4
  call void @_ZN21cmParseDelphiCoverage10HTMLParserD2Ev(ptr noundef nonnull align 8 dereferenceable(24) %5) #3
  br label %20

20:                                               ; preds = %16
  %21 = load ptr, ptr %6, align 8
  %22 = load i32, ptr %7, align 4
  %23 = insertvalue { ptr, i32 } poison, ptr %21, 0
  %24 = insertvalue { ptr, i32 } %23, i32 %22, 1
  resume { ptr, i32 } %24
}

; Function Attrs: mustprogress nounwind uwtable
define linkonce_odr dso_local noundef zeroext i1 @_ZSteqIcSt11char_traitsIcESaIcEEbRKNSt7__cxx1112basic_stringIT_T0_T1_EEPKS5_(ptr noundef nonnull align 8 dereferenceable(32) %0, ptr noundef %1) #4 comdat {
  %3 = alloca ptr, align 8
  %4 = alloca ptr, align 8
  store ptr %0, ptr %3, align 8
  store ptr %1, ptr %4, align 8
  %5 = load ptr, ptr %3, align 8
  %6 = load ptr, ptr %4, align 8
  %7 = call noundef i32 @_ZNKSt7__cxx1112basic_stringIcSt11char_traitsIcESaIcEE7compareEPKc(ptr noundef nonnull align 8 dereferenceable(32) %5, ptr noundef %6) #3
  %8 = icmp eq i32 %7, 0
  ret i1 %8
}

; Function Attrs: mustprogress nounwind uwtable
define linkonce_odr dso_local noundef nonnull align 8 dereferenceable(32) ptr @_ZNKSt6vectorINSt7__cxx1112basic_stringIcSt11char_traitsIcESaIcEEESaIS5_EEixEm(ptr noundef nonnull align 8 dereferenceable(24) %0, i64 noundef %1) #4 comdat align 2 {
  %3 = alloca ptr, align 8
  %4 = alloca i64, align 8
  store ptr %0, ptr %3, align 8
  store i64 %1, ptr %4, align 8
  %5 = load ptr, ptr %3, align 8
  %6 = getelementptr inbounds %"struct.std::_Vector_base", ptr %5, i32 0, i32 0
  %7 = getelementptr inbounds %"struct.std::_Vector_base<std::__cxx11::basic_string<char>, std::allocator<std::__cxx11::basic_string<char>>>::_Vector_impl_data", ptr %6, i32 0, i32 0
  %8 = load ptr, ptr %7, align 8
  %9 = load i64, ptr %4, align 8
  %10 = getelementptr inbounds %"class.std::__cxx11::basic_string", ptr %8, i64 %9
  ret ptr %10
}

; Function Attrs: mustprogress nounwind uwtable
define linkonce_odr dso_local noundef i64 @_ZNKSt6vectorINSt7__cxx1112basic_stringIcSt11char_traitsIcESaIcEEESaIS5_EE4sizeEv(ptr noundef nonnull align 8 dereferenceable(24) %0) #4 comdat align 2 {
  %2 = alloca ptr, align 8
  store ptr %0, ptr %2, align 8
  %3 = load ptr, ptr %2, align 8
  %4 = getelementptr inbounds %"struct.std::_Vector_base", ptr %3, i32 0, i32 0
  %5 = getelementptr inbounds %"struct.std::_Vector_base<std::__cxx11::basic_string<char>, std::allocator<std::__cxx11::basic_string<char>>>::_Vector_impl_data", ptr %4, i32 0, i32 1
  %6 = load ptr, ptr %5, align 8
  %7 = getelementptr inbounds %"struct.std::_Vector_base", ptr %3, i32 0, i32 0
  %8 = getelementptr inbounds %"struct.std::_Vector_base<std::__cxx11::basic_string<char>, std::allocator<std::__cxx11::basic_string<char>>>::_Vector_impl_data", ptr %7, i32 0, i32 0
  %9 = load ptr, ptr %8, align 8
  %10 = ptrtoint ptr %6 to i64
  %11 = ptrtoint ptr %9 to i64
  %12 = sub i64 %10, %11
  %13 = sdiv exact i64 %12, 32
  ret i64 %13
}

; Function Attrs: mustprogress uwtable
define dso_local noundef zeroext i1 @_ZN21cmParseDelphiCoverage16LoadCoverageDataERKSt6vectorINSt7__cxx1112basic_stringIcSt11char_traitsIcESaIcEEESaIS6_EE(ptr noundef nonnull align 8 dereferenceable(16) %0, ptr noundef nonnull align 8 dereferenceable(24) %1) #5 align 2 personality ptr @__gxx_personality_v0 {
  %3 = alloca i1, align 1
  %4 = alloca ptr, align 8
  %5 = alloca ptr, align 8
  %6 = alloca i64, align 8
  %7 = alloca %"class.std::__cxx11::basic_string", align 8
  %8 = alloca i64, align 8
  %9 = alloca ptr, align 8
  %10 = alloca i32, align 4
  %11 = alloca %"class.std::__cxx11::basic_ostringstream", align 8
  %12 = alloca %"class.std::__cxx11::basic_string", align 8
  %13 = alloca %"class.std::__cxx11::basic_string", align 8
  %14 = alloca i32, align 4
  store ptr %0, ptr %4, align 8
  store ptr %1, ptr %5, align 8
  %15 = load ptr, ptr %4, align 8
  call void @_ZNSt7__cxx1112basic_stringIcSt11char_traitsIcESaIcEEC1Ev(ptr noundef nonnull align 8 dereferenceable(32) %7) #3
  %16 = load ptr, ptr %5, align 8
  %17 = call noundef i64 @_ZNKSt6vectorINSt7__cxx1112basic_stringIcSt11char_traitsIcESaIcEEESaIS5_EE4sizeEv(ptr noundef nonnull align 8 dereferenceable(24) %16) #3
  store i64 %17, ptr %8, align 8
  store i64 0, ptr %6, align 8
  br label %18

18:                                               ; preds = %75, %2
  %19 = load i64, ptr %6, align 8
  %20 = load i64, ptr %8, align 8
  %21 = icmp ult i64 %19, %20
  br i1 %21, label %22, label %78

22:                                               ; preds = %18
  %23 = load ptr, ptr %5, align 8
  %24 = load i64, ptr %6, align 8
  %25 = call noundef nonnull align 8 dereferenceable(32) ptr @_ZNKSt6vectorINSt7__cxx1112basic_stringIcSt11char_traitsIcESaIcEEESaIS5_EEixEm(ptr noundef nonnull align 8 dereferenceable(24) %23, i64 noundef %24) #3
  %26 = invoke noundef nonnull align 8 dereferenceable(32) ptr @_ZNSt7__cxx1112basic_stringIcSt11char_traitsIcESaIcEEaSERKS4_(ptr noundef nonnull align 8 dereferenceable(32) %7, ptr noundef nonnull align 8 dereferenceable(32) %25)
          to label %27 unwind label %56

27:                                               ; preds = %22
  br label %28

28:                                               ; preds = %27
  invoke void @_ZNSt7__cxx1119basic_ostringstreamIcSt11char_traitsIcESaIcEEC1Ev(ptr noundef nonnull align 8 dereferenceable(112) %11)
          to label %29 unwind label %56

29:                                               ; preds = %28
  %30 = invoke noundef nonnull align 8 dereferenceable(8) ptr @_ZStlsISt11char_traitsIcEERSt13basic_ostreamIcT_ES5_PKc(ptr noundef nonnull align 8 dereferenceable(8) %11, ptr noundef @.str)
          to label %31 unwind label %60

31:                                               ; preds = %29
  %32 = invoke noundef nonnull align 8 dereferenceable(8) ptr @_ZStlsIcSt11char_traitsIcESaIcEERSt13basic_ostreamIT_T0_ES7_RKNSt7__cxx1112basic_stringIS4_S5_T1_EE(ptr noundef nonnull align 8 dereferenceable(8) %30, ptr noundef nonnull align 8 dereferenceable(32) %7)
          to label %33 unwind label %60

33:                                               ; preds = %31
  %34 = invoke noundef nonnull align 8 dereferenceable(8) ptr @_ZNSolsEPFRSoS_E(ptr noundef nonnull align 8 dereferenceable(8) %32, ptr noundef @_ZSt4endlIcSt11char_traitsIcEERSt13basic_ostreamIT_T0_ES6_)
          to label %35 unwind label %60

35:                                               ; preds = %33
  %36 = getelementptr inbounds %class.cmParseDelphiCoverage, ptr %15, i32 0, i32 1
  %37 = load ptr, ptr %36, align 8
  invoke void @_ZNKSt7__cxx1119basic_ostringstreamIcSt11char_traitsIcESaIcEE3strEv(ptr dead_on_unwind writable sret(%"class.std::__cxx11::basic_string") align 8 %12, ptr noundef nonnull align 8 dereferenceable(112) %11)
          to label %38 unwind label %60

38:                                               ; preds = %35
  %39 = call noundef ptr @_ZNKSt7__cxx1112basic_stringIcSt11char_traitsIcESaIcEE5c_strEv(ptr noundef nonnull align 8 dereferenceable(32) %12) #3
  %40 = getelementptr inbounds %class.cmParseDelphiCoverage, ptr %15, i32 0, i32 0
  %41 = load ptr, ptr %40, align 8
  %42 = getelementptr inbounds %class.cmCTestCoverageHandlerContainer, ptr %41, i32 0, i32 6
  %43 = load i8, ptr %42, align 8
  %44 = trunc i8 %43 to i1
  invoke void @_ZN7cmCTest3LogEiPKciS1_b(ptr noundef nonnull align 8 dereferenceable(8) %37, i32 noundef 5, ptr noundef @.str.1, i32 noundef 217, ptr noundef %39, i1 noundef zeroext %44)
          to label %45 unwind label %64

45:                                               ; preds = %38
  call void @_ZNSt7__cxx1112basic_stringIcSt11char_traitsIcESaIcEED1Ev(ptr noundef nonnull align 8 dereferenceable(32) %12) #3
  call void @_ZNSt7__cxx1119basic_ostringstreamIcSt11char_traitsIcESaIcEED1Ev(ptr noundef nonnull align 8 dereferenceable(112) %11) #3
  br label %46

46:                                               ; preds = %45
  br label %47

47:                                               ; preds = %46
  invoke void @_ZN5cmsys11SystemTools24GetFilenameLastExtensionERKNSt7__cxx1112basic_stringIcSt11char_traitsIcESaIcEEE(ptr dead_on_unwind writable sret(%"class.std::__cxx11::basic_string") align 8 %13, ptr noundef nonnull align 8 dereferenceable(32) %7)
          to label %48 unwind label %56

48:                                               ; preds = %47
  %49 = invoke noundef zeroext i1 @_ZSteqIcSt11char_traitsIcESaIcEEbRKNSt7__cxx1112basic_stringIT_T0_T1_EEPKS5_(ptr noundef nonnull align 8 dereferenceable(32) %13, ptr noundef @.str.2)
          to label %50 unwind label %69

50:                                               ; preds = %48
  call void @_ZNSt7__cxx1112basic_stringIcSt11char_traitsIcESaIcEED1Ev(ptr noundef nonnull align 8 dereferenceable(32) %13) #3
  br i1 %49, label %51, label %74

51:                                               ; preds = %50
  %52 = call noundef ptr @_ZNKSt7__cxx1112basic_stringIcSt11char_traitsIcESaIcEE5c_strEv(ptr noundef nonnull align 8 dereferenceable(32) %7) #3
  %53 = invoke noundef zeroext i1 @_ZN21cmParseDelphiCoverage14ReadDelphiHTMLEPKc(ptr noundef nonnull align 8 dereferenceable(16) %15, ptr noundef %52)
          to label %54 unwind label %56

54:                                               ; preds = %51
  br i1 %53, label %73, label %55

55:                                               ; preds = %54
  store i1 false, ptr %3, align 1
  store i32 1, ptr %14, align 4
  br label %79

56:                                               ; preds = %51, %47, %28, %22
  %57 = landingpad { ptr, i32 }
          cleanup
  %58 = extractvalue { ptr, i32 } %57, 0
  store ptr %58, ptr %9, align 8
  %59 = extractvalue { ptr, i32 } %57, 1
  store i32 %59, ptr %10, align 4
  br label %81

60:                                               ; preds = %35, %33, %31, %29
  %61 = landingpad { ptr, i32 }
          cleanup
  %62 = extractvalue { ptr, i32 } %61, 0
  store ptr %62, ptr %9, align 8
  %63 = extractvalue { ptr, i32 } %61, 1
  store i32 %63, ptr %10, align 4
  br label %68

64:                                               ; preds = %38
  %65 = landingpad { ptr, i32 }
          cleanup
  %66 = extractvalue { ptr, i32 } %65, 0
  store ptr %66, ptr %9, align 8
  %67 = extractvalue { ptr, i32 } %65, 1
  store i32 %67, ptr %10, align 4
  call void @_ZNSt7__cxx1112basic_stringIcSt11char_traitsIcESaIcEED1Ev(ptr noundef nonnull align 8 dereferenceable(32) %12) #3
  br label %68

68:                                               ; preds = %64, %60
  call void @_ZNSt7__cxx1119basic_ostringstreamIcSt11char_traitsIcESaIcEED1Ev(ptr noundef nonnull align 8 dereferenceable(112) %11) #3
  br label %81

69:                                               ; preds = %48
  %70 = landingpad { ptr, i32 }
          cleanup
  %71 = extractvalue { ptr, i32 } %70, 0
  store ptr %71, ptr %9, align 8
  %72 = extractvalue { ptr, i32 } %70, 1
  store i32 %72, ptr %10, align 4
  call void @_ZNSt7__cxx1112basic_stringIcSt11char_traitsIcESaIcEED1Ev(ptr noundef nonnull align 8 dereferenceable(32) %13) #3
  br label %81

73:                                               ; preds = %54
  br label %74

74:                                               ; preds = %73, %50
  br label %75

75:                                               ; preds = %74
  %76 = load i64, ptr %6, align 8
  %77 = add i64 %76, 1
  store i64 %77, ptr %6, align 8
  br label %18, !llvm.loop !5

78:                                               ; preds = %18
  store i1 true, ptr %3, align 1
  store i32 1, ptr %14, align 4
  br label %79

79:                                               ; preds = %78, %55
  call void @_ZNSt7__cxx1112basic_stringIcSt11char_traitsIcESaIcEED1Ev(ptr noundef nonnull align 8 dereferenceable(32) %7) #3
  %80 = load i1, ptr %3, align 1
  ret i1 %80

81:                                               ; preds = %69, %68, %56
  call void @_ZNSt7__cxx1112basic_stringIcSt11char_traitsIcESaIcEED1Ev(ptr noundef nonnull align 8 dereferenceable(32) %7) #3
  br label %82

82:                                               ; preds = %81
  %83 = load ptr, ptr %9, align 8
  %84 = load i32, ptr %10, align 4
  %85 = insertvalue { ptr, i32 } poison, ptr %83, 0
  %86 = insertvalue { ptr, i32 } %85, i32 %84, 1
  resume { ptr, i32 } %86
}